(dp0
S'engine'
p1
S'pdflatex'
p2
sS'packages'
p3
c__builtin__
set
p4
((lp5
Vgeometry
p6
atp7
Rp8
sS'files_with_guttermarks'
p9
g4
((lp10
S'cv_4.tex'
p11
aS'/Users/meganchen/Desktop/Summer 2015 Applications/VISA - CS/Resume/./cv_4.tex'
p12
aS'/Users/meganchen/Desktop/LaTex/Resume/./cv_4.tex'
p13
atp14
Rp15
sS'synctex'
p16
I01
s.